target datalayout = "e-m:e-p270:32:32-p271:32:32-p272:64:64-i64:64-i128:128-f80:128-n8:16:32:64-S128"
target triple = "x86_64-pc-linux-gnu"

%struct.expert_field = type { i32, i32 }
%struct._packet_info = type { ptr, ptr, i32, i32, %struct.nstime_t, %struct.nstime_t, %struct.nstime_t, i8, ptr, ptr, ptr, ptr, %struct._address, %struct._address, %struct._address, %struct._address, %struct._address, %struct._address, i32, ptr, i8, [3 x i8], %struct.anon, i32, i32, i32, i32, ptr, i8, ptr, ptr, i16, i16, i32, i32, i16, i32, i32, ptr, ptr, ptr, i8, i8, i16, i16, i16, i32, i16, i16, ptr, ptr, ptr, ptr, ptr, i32, i32 }
%struct.nstime_t = type { i64, i32 }
%struct._address = type { i32, i32, ptr, ptr }
%struct.anon = type { i8, [3 x i8] }

@hf_xip_version = internal global i32 0, align 4
@hf_xip_next_hdr = internal global i32 0, align 4
@hf_xip_payload_len = internal global i32 0, align 4
@hf_xip_hop_limit = internal global i32 0, align 4
@hf_xip_num_dst = internal global i32 0, align 4
@hf_xip_num_src = internal global i32 0, align 4
@hf_xip_last_node = internal global i32 0, align 4
@hf_xip_dst_dag = internal global i32 0, align 4
@hf_xip_dst_dag_entry = internal global i32 0, align 4
@hf_xip_src_dag = internal global i32 0, align 4
@hf_xip_src_dag_entry = internal global i32 0, align 4
@ett_xip_tree = internal global i32 0, align 4
@ett_xip_ddag = internal global i32 0, align 4
@ett_xip_sdag = internal global i32 0, align 4
@ei_xip_invalid_len = internal global %struct.expert_field zeroinitializer, align 4
@ei_xip_next_header = internal global %struct.expert_field zeroinitializer, align 4
@ei_xip_bad_num_dst = internal global %struct.expert_field zeroinitializer, align 4
@ei_xip_bad_num_src = internal global %struct.expert_field zeroinitializer, align 4
@.str.31 = private unnamed_addr constant [4 x i8] c"XIP\00", align 1
@proto_xip = internal global i32 0, align 4
@xip_serval_handle = internal global ptr null, align 8
@.str.35 = private unnamed_addr constant [11 x i8] c"XIP Packet\00", align 1
@.str.36 = private unnamed_addr constant [25 x i8] c"Payload Length: %u bytes\00", align 1
@.str.37 = private unnamed_addr constant [80 x i8] c"Payload length field (%d bytes) does not match actual payload length (%d bytes)\00", align 1
@.str.38 = private unnamed_addr constant [78 x i8] c"The number of destination DAG nodes (%d) must be less than XIA_NODES_MAX (%d)\00", align 1
@.str.39 = private unnamed_addr constant [73 x i8] c"The number of source DAG nodes (%d) must be less than XIA_NODES_MAX (%d)\00", align 1
@.str.40 = private unnamed_addr constant [5 x i8] c"%d%s\00", align 1
@.str.41 = private unnamed_addr constant [14 x i8] c" (entry node)\00", align 1
@.str.42 = private unnamed_addr constant [1 x i8] zeroinitializer, align 1
@.str.61 = private unnamed_addr constant [38 x i8] c"Unrecognized next header type: 0x%02x\00", align 1

; Function Attrs: null_pointer_is_valid sspstrong uwtable
define internal i32 @dissect_xip_next_header(ptr noundef %0, ptr noundef %1, ptr noundef %2, ptr noundef %3, i32 noundef %4) #0 {
  %6 = alloca i32, align 4
  %7 = alloca ptr, align 8
  %8 = alloca ptr, align 8
  %9 = alloca ptr, align 8
  %10 = alloca ptr, align 8
  %11 = alloca i32, align 4
  %12 = alloca ptr, align 8
  %13 = alloca i8, align 1
  %14 = alloca i32, align 4
  store ptr %0, ptr %7, align 8
  store ptr %1, ptr %8, align 8
  store ptr %2, ptr %9, align 8
  store ptr %3, ptr %10, align 8
  store i32 %4, ptr %11, align 4
  call void @llvm.lifetime.start.p0(i64 8, ptr %12) #9
  call void @llvm.lifetime.start.p0(i64 1, ptr %13) #9
  %15 = load ptr, ptr %7, align 8
  %16 = call zeroext i8 @tvb_get_uint8(ptr noundef %15, i32 noundef 1)
  store i8 %16, ptr %13, align 1
  %17 = load i8, ptr %13, align 1
  %18 = zext i8 %17 to i32
  switch i32 %18, label %27 [
    i32 0, label %19
  ]

19:                                               ; preds = %5
  %20 = load ptr, ptr %7, align 8
  %21 = load i32, ptr %11, align 4
  %22 = call ptr @tvb_new_subset_remaining(ptr noundef %20, i32 noundef %21)
  store ptr %22, ptr %12, align 8
  %23 = load ptr, ptr %12, align 8
  %24 = load ptr, ptr %8, align 8
  %25 = load ptr, ptr %9, align 8
  %26 = call i32 @call_data_dissector(ptr noundef %23, ptr noundef %24, ptr noundef %25)
  store i32 %26, ptr %6, align 4
  store i32 1, ptr %14, align 4
  br label %33

27:                                               ; preds = %5
  %28 = load ptr, ptr %8, align 8
  %29 = load ptr, ptr %10, align 8
  %30 = load i8, ptr %13, align 1
  %31 = zext i8 %30 to i32
  %32 = call ptr (ptr, ptr, ptr, ptr, ...) @expert_add_info_format(ptr noundef %28, ptr noundef %29, ptr noundef @ei_xip_next_header, ptr noundef @.str.61, i32 noundef %31)
  store i32 0, ptr %6, align 4
  store i32 1, ptr %14, align 4
  br label %33

33:                                               ; preds = %27, %19
  call void @llvm.lifetime.end.p0(i64 1, ptr %13) #9
  call void @llvm.lifetime.end.p0(i64 8, ptr %12) #9
  %34 = load i32, ptr %6, align 4
  ret i32 %34
}

; Function Attrs: null_pointer_is_valid sspstrong uwtable
define internal i32 @dissect_xip_sink_node(ptr noundef %0, ptr noundef %1, ptr noundef %2, i32 noundef %3, i8 noundef zeroext %4) #0 {
  %6 = alloca i32, align 4
  %7 = alloca ptr, align 8
  %8 = alloca ptr, align 8
  %9 = alloca ptr, align 8
  %10 = alloca i32, align 4
  %11 = alloca i8, align 1
  %12 = alloca ptr, align 8
  %13 = alloca i32, align 4
  store ptr %0, ptr %7, align 8
  store ptr %1, ptr %8, align 8
  store ptr %2, ptr %9, align 8
  store i32 %3, ptr %10, align 4
  store i8 %4, ptr %11, align 1
  call void @llvm.lifetime.start.p0(i64 8, ptr %12) #9
  %14 = load i8, ptr %11, align 1
  %15 = zext i8 %14 to i32
  switch i32 %15, label %25 [
    i32 25, label %16
    i32 24, label %16
  ]

16:                                               ; preds = %5, %5
  %17 = load ptr, ptr %7, align 8
  %18 = load i32, ptr %10, align 4
  %19 = call ptr @tvb_new_subset_remaining(ptr noundef %17, i32 noundef %18)
  store ptr %19, ptr %12, align 8
  %20 = load ptr, ptr @xip_serval_handle, align 8
  %21 = load ptr, ptr %12, align 8
  %22 = load ptr, ptr %8, align 8
  %23 = load ptr, ptr %9, align 8
  %24 = call i32 @call_dissector(ptr noundef %20, ptr noundef %21, ptr noundef %22, ptr noundef %23)
  store i32 %24, ptr %6, align 4
  store i32 1, ptr %13, align 4
  br label %26

25:                                               ; preds = %5
  store i32 0, ptr %6, align 4
  store i32 1, ptr %13, align 4
  br label %26

26:                                               ; preds = %25, %16
  call void @llvm.lifetime.end.p0(i64 8, ptr %12) #9
  %27 = load i32, ptr %6, align 4
  ret i32 %27
}

; Function Attrs: null_pointer_is_valid sspstrong uwtable
define internal void @display_xip(ptr noundef %0, ptr noundef %1, ptr noundef %2) #0 {
  %4 = alloca ptr, align 8
  %5 = alloca ptr, align 8
  %6 = alloca ptr, align 8
  %7 = alloca ptr, align 8
  %8 = alloca ptr, align 8
  %9 = alloca ptr, align 8
  %10 = alloca ptr, align 8
  %11 = alloca ptr, align 8
  %12 = alloca i32, align 4
  %13 = alloca i16, align 2
  %14 = alloca i16, align 2
  %15 = alloca i8, align 1
  %16 = alloca i8, align 1
  %17 = alloca i8, align 1
  store ptr %0, ptr %4, align 8
  store ptr %1, ptr %5, align 8
  store ptr %2, ptr %6, align 8
  call void @llvm.lifetime.start.p0(i64 8, ptr %7) #9
  store ptr null, ptr %7, align 8
  call void @llvm.lifetime.start.p0(i64 8, ptr %8) #9
  store ptr null, ptr %8, align 8
  call void @llvm.lifetime.start.p0(i64 8, ptr %9) #9
  store ptr null, ptr %9, align 8
  call void @llvm.lifetime.start.p0(i64 8, ptr %10) #9
  store ptr null, ptr %10, align 8
  call void @llvm.lifetime.start.p0(i64 8, ptr %11) #9
  store ptr null, ptr %11, align 8
  call void @llvm.lifetime.start.p0(i64 4, ptr %12) #9
  call void @llvm.lifetime.start.p0(i64 2, ptr %13) #9
  call void @llvm.lifetime.start.p0(i64 2, ptr %14) #9
  call void @llvm.lifetime.start.p0(i64 1, ptr %15) #9
  call void @llvm.lifetime.start.p0(i64 1, ptr %16) #9
  call void @llvm.lifetime.start.p0(i64 1, ptr %17) #9
  %18 = load ptr, ptr %4, align 8
  %19 = call zeroext i8 @tvb_get_uint8(ptr noundef %18, i32 noundef 5)
  store i8 %19, ptr %15, align 1
  %20 = load ptr, ptr %4, align 8
  %21 = call zeroext i8 @tvb_get_uint8(ptr noundef %20, i32 noundef 6)
  store i8 %21, ptr %16, align 1
  %22 = load i8, ptr %15, align 1
  %23 = zext i8 %22 to i32
  %24 = mul i32 28, %23
  %25 = add i32 8, %24
  %26 = load i8, ptr %16, align 1
  %27 = zext i8 %26 to i32
  %28 = mul i32 28, %27
  %29 = add i32 %25, %28
  %30 = trunc i32 %29 to i16
  store i16 %30, ptr %13, align 2
  %31 = load ptr, ptr %6, align 8
  %32 = load i32, ptr @proto_xip, align 4
  %33 = load ptr, ptr %4, align 8
  %34 = load i16, ptr %13, align 2
  %35 = zext i16 %34 to i32
  %36 = call ptr @proto_tree_add_item(ptr noundef %31, i32 noundef %32, ptr noundef %33, i32 noundef 0, i32 noundef %35, i32 noundef 0)
  store ptr %36, ptr %8, align 8
  %37 = load ptr, ptr %8, align 8
  %38 = load i32, ptr @ett_xip_tree, align 4
  %39 = call ptr @proto_item_add_subtree(ptr noundef %37, i32 noundef %38)
  store ptr %39, ptr %7, align 8
  %40 = load ptr, ptr %7, align 8
  %41 = load i32, ptr @hf_xip_version, align 4
  %42 = load ptr, ptr %4, align 8
  %43 = call ptr @proto_tree_add_item(ptr noundef %40, i32 noundef %41, ptr noundef %42, i32 noundef 0, i32 noundef 1, i32 noundef 0)
  %44 = load ptr, ptr %7, align 8
  %45 = load i32, ptr @hf_xip_next_hdr, align 4
  %46 = load ptr, ptr %4, align 8
  %47 = call ptr @proto_tree_add_item(ptr noundef %44, i32 noundef %45, ptr noundef %46, i32 noundef 1, i32 noundef 1, i32 noundef 0)
  store ptr %47, ptr %10, align 8
  %48 = load ptr, ptr %4, align 8
  %49 = call zeroext i16 @tvb_get_ntohs(ptr noundef %48, i32 noundef 2)
  store i16 %49, ptr %14, align 2
  %50 = load ptr, ptr %7, align 8
  %51 = load i32, ptr @hf_xip_payload_len, align 4
  %52 = load ptr, ptr %4, align 8
  %53 = load i16, ptr %14, align 2
  %54 = zext i16 %53 to i32
  %55 = load i16, ptr %14, align 2
  %56 = zext i16 %55 to i32
  %57 = call ptr (ptr, i32, ptr, i32, i32, i32, ptr, ...) @proto_tree_add_uint_format(ptr noundef %50, i32 noundef %51, ptr noundef %52, i32 noundef 2, i32 noundef 2, i32 noundef %54, ptr noundef @.str.36, i32 noundef %56)
  store ptr %57, ptr %9, align 8
  %58 = load ptr, ptr %4, align 8
  %59 = load i16, ptr %13, align 2
  %60 = zext i16 %59 to i32
  %61 = call i32 @tvb_captured_length_remaining(ptr noundef %58, i32 noundef %60)
  %62 = load i16, ptr %14, align 2
  %63 = zext i16 %62 to i32
  %64 = icmp ne i32 %61, %63
  br i1 %64, label %65, label %75

65:                                               ; preds = %3
  %66 = load ptr, ptr %5, align 8
  %67 = load ptr, ptr %9, align 8
  %68 = load i16, ptr %14, align 2
  %69 = zext i16 %68 to i32
  %70 = load ptr, ptr %4, align 8
  %71 = load i16, ptr %13, align 2
  %72 = zext i16 %71 to i32
  %73 = call i32 @tvb_captured_length_remaining(ptr noundef %70, i32 noundef %72)
  %74 = call ptr (ptr, ptr, ptr, ptr, ...) @expert_add_info_format(ptr noundef %66, ptr noundef %67, ptr noundef @ei_xip_invalid_len, ptr noundef @.str.37, i32 noundef %69, i32 noundef %73)
  br label %75

75:                                               ; preds = %65, %3
  %76 = load ptr, ptr %7, align 8
  %77 = load i32, ptr @hf_xip_hop_limit, align 4
  %78 = load ptr, ptr %4, align 8
  %79 = call ptr @proto_tree_add_item(ptr noundef %76, i32 noundef %77, ptr noundef %78, i32 noundef 4, i32 noundef 1, i32 noundef 0)
  %80 = load ptr, ptr %7, align 8
  %81 = load i32, ptr @hf_xip_num_dst, align 4
  %82 = load ptr, ptr %4, align 8
  %83 = call ptr @proto_tree_add_item(ptr noundef %80, i32 noundef %81, ptr noundef %82, i32 noundef 5, i32 noundef 1, i32 noundef 0)
  store ptr %83, ptr %11, align 8
  %84 = load i8, ptr %15, align 1
  %85 = zext i8 %84 to i32
  %86 = icmp sgt i32 %85, 9
  br i1 %86, label %87, label %93

87:                                               ; preds = %75
  %88 = load ptr, ptr %5, align 8
  %89 = load ptr, ptr %11, align 8
  %90 = load i8, ptr %15, align 1
  %91 = zext i8 %90 to i32
  %92 = call ptr (ptr, ptr, ptr, ptr, ...) @expert_add_info_format(ptr noundef %88, ptr noundef %89, ptr noundef @ei_xip_bad_num_dst, ptr noundef @.str.38, i32 noundef %91, i32 noundef 9)
  store i8 9, ptr %15, align 1
  br label %93

93:                                               ; preds = %87, %75
  %94 = load ptr, ptr %7, align 8
  %95 = load i32, ptr @hf_xip_num_src, align 4
  %96 = load ptr, ptr %4, align 8
  %97 = call ptr @proto_tree_add_item(ptr noundef %94, i32 noundef %95, ptr noundef %96, i32 noundef 6, i32 noundef 1, i32 noundef 0)
  store ptr %97, ptr %11, align 8
  %98 = load i8, ptr %16, align 1
  %99 = zext i8 %98 to i32
  %100 = icmp sgt i32 %99, 9
  br i1 %100, label %101, label %107

101:                                              ; preds = %93
  %102 = load ptr, ptr %5, align 8
  %103 = load ptr, ptr %11, align 8
  %104 = load i8, ptr %16, align 1
  %105 = zext i8 %104 to i32
  %106 = call ptr (ptr, ptr, ptr, ptr, ...) @expert_add_info_format(ptr noundef %102, ptr noundef %103, ptr noundef @ei_xip_bad_num_src, ptr noundef @.str.39, i32 noundef %105, i32 noundef 9)
  store i8 9, ptr %16, align 1
  br label %107

107:                                              ; preds = %101, %93
  %108 = load ptr, ptr %4, align 8
  %109 = call zeroext i8 @tvb_get_uint8(ptr noundef %108, i32 noundef 7)
  store i8 %109, ptr %17, align 1
  %110 = load ptr, ptr %7, align 8
  %111 = load i32, ptr @hf_xip_last_node, align 4
  %112 = load ptr, ptr %4, align 8
  %113 = load i8, ptr %17, align 1
  %114 = zext i8 %113 to i32
  %115 = load i8, ptr %17, align 1
  %116 = zext i8 %115 to i32
  %117 = load i8, ptr %17, align 1
  %118 = zext i8 %117 to i32
  %119 = icmp eq i32 %118, 126
  %120 = select i1 %119, ptr @.str.41, ptr @.str.42
  %121 = call ptr (ptr, i32, ptr, i32, i32, i32, ptr, ...) @proto_tree_add_uint_format_value(ptr noundef %110, i32 noundef %111, ptr noundef %112, i32 noundef 7, i32 noundef 1, i32 noundef %114, ptr noundef @.str.40, i32 noundef %116, ptr noundef %120)
  %122 = load i8, ptr %15, align 1
  %123 = zext i8 %122 to i32
  %124 = icmp sgt i32 %123, 0
  br i1 %124, label %125, label %133

125:                                              ; preds = %107
  %126 = load ptr, ptr %4, align 8
  %127 = load ptr, ptr %5, align 8
  %128 = load ptr, ptr %7, align 8
  %129 = load i32, ptr @ett_xip_ddag, align 4
  %130 = load i32, ptr @hf_xip_dst_dag, align 4
  %131 = load i32, ptr @hf_xip_dst_dag_entry, align 4
  %132 = load i8, ptr %15, align 1
  call void @construct_dag(ptr noundef %126, ptr noundef %127, ptr noundef %128, i32 noundef %129, i32 noundef %130, i32 noundef %131, i8 noundef zeroext %132, i32 noundef 8)
  br label %133

133:                                              ; preds = %125, %107
  %134 = load i8, ptr %16, align 1
  %135 = zext i8 %134 to i32
  %136 = icmp sgt i32 %135, 0
  br i1 %136, label %137, label %149

137:                                              ; preds = %133
  %138 = load ptr, ptr %4, align 8
  %139 = load ptr, ptr %5, align 8
  %140 = load ptr, ptr %7, align 8
  %141 = load i32, ptr @ett_xip_sdag, align 4
  %142 = load i32, ptr @hf_xip_src_dag, align 4
  %143 = load i32, ptr @hf_xip_src_dag_entry, align 4
  %144 = load i8, ptr %16, align 1
  %145 = load i8, ptr %15, align 1
  %146 = zext i8 %145 to i32
  %147 = mul i32 %146, 28
  %148 = add i32 8, %147
  call void @construct_dag(ptr noundef %138, ptr noundef %139, ptr noundef %140, i32 noundef %141, i32 noundef %142, i32 noundef %143, i8 noundef zeroext %144, i32 noundef %148)
  br label %149

149:                                              ; preds = %137, %133
  %150 = load i8, ptr %15, align 1
  %151 = zext i8 %150 to i32
  %152 = load i8, ptr %16, align 1
  %153 = zext i8 %152 to i32
  %154 = add i32 %151, %153
  %155 = mul i32 28, %154
  %156 = add i32 8, %155
  store i32 %156, ptr %12, align 4
  %157 = load ptr, ptr %4, align 8
  %158 = load ptr, ptr %5, align 8
  %159 = load ptr, ptr %6, align 8
  %160 = load i32, ptr %12, align 4
  %161 = load ptr, ptr %4, align 8
  %162 = load i8, ptr %15, align 1
  %163 = zext i8 %162 to i32
  %164 = sub i32 %163, 1
  %165 = mul i32 %164, 28
  %166 = add i32 8, %165
  %167 = call i32 @tvb_get_ntohl(ptr noundef %161, i32 noundef %166)
  %168 = trunc i32 %167 to i8
  %169 = call i32 @dissect_xip_sink_node(ptr noundef %157, ptr noundef %158, ptr noundef %159, i32 noundef %160, i8 noundef zeroext %168)
  %170 = load i32, ptr %12, align 4
  %171 = add i32 %170, %169
  store i32 %171, ptr %12, align 4
  %172 = load ptr, ptr %4, align 8
  %173 = load ptr, ptr %5, align 8
  %174 = load ptr, ptr %6, align 8
  %175 = load ptr, ptr %10, align 8
  %176 = load i32, ptr %12, align 4
  %177 = call i32 @dissect_xip_next_header(ptr noundef %172, ptr noundef %173, ptr noundef %174, ptr noundef %175, i32 noundef %176)
  call void @llvm.lifetime.end.p0(i64 1, ptr %17) #9
  call void @llvm.lifetime.end.p0(i64 1, ptr %16) #9
  call void @llvm.lifetime.end.p0(i64 1, ptr %15) #9
  call void @llvm.lifetime.end.p0(i64 2, ptr %14) #9
  call void @llvm.lifetime.end.p0(i64 2, ptr %13) #9
  call void @llvm.lifetime.end.p0(i64 4, ptr %12) #9
  call void @llvm.lifetime.end.p0(i64 8, ptr %11) #9
  call void @llvm.lifetime.end.p0(i64 8, ptr %10) #9
  call void @llvm.lifetime.end.p0(i64 8, ptr %9) #9
  call void @llvm.lifetime.end.p0(i64 8, ptr %8) #9
  call void @llvm.lifetime.end.p0(i64 8, ptr %7) #9
  ret void
}

; Function Attrs: null_pointer_is_valid sspstrong uwtable
define internal i32 @dissect_xip(ptr noundef %0, ptr noundef %1, ptr noundef %2, ptr noundef %3) #0 {
  %5 = alloca i32, align 4
  %6 = alloca ptr, align 8
  %7 = alloca ptr, align 8
  %8 = alloca ptr, align 8
  %9 = alloca ptr, align 8
  store ptr %0, ptr %6, align 8
  store ptr %1, ptr %7, align 8
  store ptr %2, ptr %8, align 8
  store ptr %3, ptr %9, align 8
  %10 = load ptr, ptr %6, align 8
  %11 = call i32 @tvb_reported_length(ptr noundef %10)
  %12 = icmp ult i32 %11, 36
  br i1 %12, label %13, label %14

13:                                               ; preds = %4
  store i32 0, ptr %5, align 4
  br label %26

14:                                               ; preds = %4
  %15 = load ptr, ptr %7, align 8
  %16 = getelementptr inbounds nuw %struct._packet_info, ptr %15, i32 0, i32 1
  %17 = load ptr, ptr %16, align 8
  call void @col_set_str(ptr noundef %17, i32 noundef 35, ptr noundef @.str.31)
  %18 = load ptr, ptr %7, align 8
  %19 = getelementptr inbounds nuw %struct._packet_info, ptr %18, i32 0, i32 1
  %20 = load ptr, ptr %19, align 8
  call void @col_set_str(ptr noundef %20, i32 noundef 25, ptr noundef @.str.35)
  %21 = load ptr, ptr %6, align 8
  %22 = load ptr, ptr %7, align 8
  %23 = load ptr, ptr %8, align 8
  call void @display_xip(ptr noundef %21, ptr noundef %22, ptr noundef %23)
  %24 = load ptr, ptr %6, align 8
  %25 = call i32 @tvb_captured_length(ptr noundef %24)
  store i32 %25, ptr %5, align 4
  br label %26

26:                                               ; preds = %14, %13
  %27 = load i32, ptr %5, align 4
  ret i32 %27
}