; Function Attrs: null_pointer_is_valid sspstrong uwtable
define internal i32 @dissect_xip(ptr noundef %0, ptr noundef %1, ptr noundef %2, ptr readnone captures(none) %3) #0 {
  %5 = tail call i32 @tvb_reported_length(ptr noundef %0)
  %6 = icmp ult i32 %5, 36
  br i1 %6, label %85, label %7

7:                                                ; preds = %4
  %8 = getelementptr inbounds nuw i8, ptr %1, i64 8
  %9 = load ptr, ptr %8, align 8
  tail call void @col_set_str(ptr noundef %9, i32 noundef 35, ptr noundef nonnull @.str.31)
  %10 = load ptr, ptr %8, align 8
  tail call void @col_set_str(ptr noundef %10, i32 noundef 25, ptr noundef nonnull @.str.35)
  %11 = tail call zeroext i8 @tvb_get_uint8(ptr noundef %0, i32 noundef 5)
  %12 = tail call zeroext i8 @tvb_get_uint8(ptr noundef %0, i32 noundef 6)
  %13 = zext i8 %11 to i32
  %14 = zext i8 %12 to i32
  %reass.add.i = add nuw nsw i32 %14, %13
  %reass.mul.i = mul nuw nsw i32 %reass.add.i, 28
  %15 = add nuw nsw i32 %reass.mul.i, 8
  %16 = load i32, ptr @proto_xip, align 4
  %17 = tail call ptr @proto_tree_add_item(ptr noundef %2, i32 noundef %16, ptr noundef %0, i32 noundef 0, i32 noundef %15, i32 noundef 0)
  %18 = load i32, ptr @ett_xip_tree, align 4
  %19 = tail call ptr @proto_item_add_subtree(ptr noundef %17, i32 noundef %18)
  %20 = load i32, ptr @hf_xip_version, align 4
  %21 = tail call ptr @proto_tree_add_item(ptr noundef %19, i32 noundef %20, ptr noundef %0, i32 noundef 0, i32 noundef 1, i32 noundef 0)
  %22 = load i32, ptr @hf_xip_next_hdr, align 4
  %23 = tail call ptr @proto_tree_add_item(ptr noundef %19, i32 noundef %22, ptr noundef %0, i32 noundef 1, i32 noundef 1, i32 noundef 0)
  %24 = tail call zeroext i16 @tvb_get_ntohs(ptr noundef %0, i32 noundef 2)
  %25 = load i32, ptr @hf_xip_payload_len, align 4
  %26 = zext i16 %24 to i32
  %27 = tail call ptr (ptr, i32, ptr, i32, i32, i32, ptr, ...) @proto_tree_add_uint_format(ptr noundef %19, i32 noundef %25, ptr noundef %0, i32 noundef 2, i32 noundef 2, i32 noundef %26, ptr noundef nonnull @.str.36, i32 noundef %26)
  %28 = tail call i32 @tvb_captured_length_remaining(ptr noundef %0, i32 noundef %15)
  %.not.i = icmp eq i32 %28, %26
  br i1 %.not.i, label %32, label %29

29:                                               ; preds = %7
  %30 = tail call i32 @tvb_captured_length_remaining(ptr noundef %0, i32 noundef %15)
  %31 = tail call ptr (ptr, ptr, ptr, ptr, ...) @expert_add_info_format(ptr noundef %1, ptr noundef %27, ptr noundef nonnull @ei_xip_invalid_len, ptr noundef nonnull @.str.37, i32 noundef %26, i32 noundef %30)
  br label %32

32:                                               ; preds = %29, %7
  %33 = load i32, ptr @hf_xip_hop_limit, align 4
  %34 = tail call ptr @proto_tree_add_item(ptr noundef %19, i32 noundef %33, ptr noundef %0, i32 noundef 4, i32 noundef 1, i32 noundef 0)
  %35 = load i32, ptr @hf_xip_num_dst, align 4
  %36 = tail call ptr @proto_tree_add_item(ptr noundef %19, i32 noundef %35, ptr noundef %0, i32 noundef 5, i32 noundef 1, i32 noundef 0)
  %37 = icmp ugt i8 %11, 9
  br i1 %37, label %38, label %40

38:                                               ; preds = %32
  %39 = tail call ptr (ptr, ptr, ptr, ptr, ...) @expert_add_info_format(ptr noundef %1, ptr noundef %36, ptr noundef nonnull @ei_xip_bad_num_dst, ptr noundef nonnull @.str.38, i32 noundef %13, i32 noundef 9)
  br label %40

40:                                               ; preds = %38, %32
  %.069.i = phi i8 [ 9, %38 ], [ %11, %32 ]
  %41 = load i32, ptr @hf_xip_num_src, align 4
  %42 = tail call ptr @proto_tree_add_item(ptr noundef %19, i32 noundef %41, ptr noundef %0, i32 noundef 6, i32 noundef 1, i32 noundef 0)
  %43 = icmp ugt i8 %12, 9
  br i1 %43, label %44, label %46

44:                                               ; preds = %40
  %45 = tail call ptr (ptr, ptr, ptr, ptr, ...) @expert_add_info_format(ptr noundef %1, ptr noundef %42, ptr noundef nonnull @ei_xip_bad_num_src, ptr noundef nonnull @.str.39, i32 noundef %14, i32 noundef 9)
  br label %46

46:                                               ; preds = %44, %40
  %.0.i = phi i8 [ 9, %44 ], [ %12, %40 ]
  %47 = tail call zeroext i8 @tvb_get_uint8(ptr noundef %0, i32 noundef 7)
  %48 = load i32, ptr @hf_xip_last_node, align 4
  %49 = zext i8 %47 to i32
  %50 = icmp eq i8 %47, 126
  %51 = select i1 %50, ptr @.str.41, ptr @.str.42
  %52 = tail call ptr (ptr, i32, ptr, i32, i32, i32, ptr, ...) @proto_tree_add_uint_format_value(ptr noundef %19, i32 noundef %48, ptr noundef %0, i32 noundef 7, i32 noundef 1, i32 noundef %49, ptr noundef nonnull @.str.40, i32 noundef %49, ptr noundef nonnull %51)
  %53 = zext nneg i8 %.069.i to i32
  %.not73.i = icmp eq i8 %.069.i, 0
  br i1 %.not73.i, label %58, label %54

54:                                               ; preds = %46
  %55 = load i32, ptr @ett_xip_ddag, align 4
  %56 = load i32, ptr @hf_xip_dst_dag, align 4
  %57 = load i32, ptr @hf_xip_dst_dag_entry, align 4
  tail call fastcc void @construct_dag(ptr noundef %0, ptr noundef %1, ptr noundef %19, i32 noundef %55, i32 noundef %56, i32 noundef %57, i8 noundef zeroext %.069.i, i32 noundef 8)
  br label %58

58:                                               ; preds = %54, %46
  %.not74.i = icmp eq i8 %.0.i, 0
  br i1 %.not74.i, label %._crit_edge.i, label %59

._crit_edge.i:                                    ; preds = %58
  %.pre.i = mul nuw nsw i32 %53, 28
  br label %65

59:                                               ; preds = %58
  %60 = load i32, ptr @ett_xip_sdag, align 4
  %61 = load i32, ptr @hf_xip_src_dag, align 4
  %62 = load i32, ptr @hf_xip_src_dag_entry, align 4
  %63 = mul nuw nsw i32 %53, 28
  %64 = add nuw nsw i32 %63, 8
  tail call fastcc void @construct_dag(ptr noundef %0, ptr noundef %1, ptr noundef %19, i32 noundef %60, i32 noundef %61, i32 noundef %62, i8 noundef zeroext %.0.i, i32 noundef %64)
  br label %65

65:                                               ; preds = %59, %._crit_edge.i
  %.pre-phi.i = phi i32 [ %.pre.i, %._crit_edge.i ], [ %63, %59 ]
  %narrow.i = add nuw nsw i8 %.0.i, %.069.i
  %66 = zext nneg i8 %narrow.i to i32
  %67 = mul nuw nsw i32 %66, 28
  %68 = add nuw nsw i32 %67, 8
  %69 = add nsw i32 %.pre-phi.i, -20
  %70 = tail call i32 @tvb_get_ntohl(ptr noundef %0, i32 noundef %69)
  %71 = and i32 %70, 254
  %switch.i.i = icmp eq i32 %71, 24
  br i1 %switch.i.i, label %72, label %dissect_xip_sink_node.exit.i

72:                                               ; preds = %65
  %73 = tail call ptr @tvb_new_subset_remaining(ptr noundef %0, i32 noundef range(i32 8, 14289) %68)
  %74 = load ptr, ptr @xip_serval_handle, align 8
  %75 = tail call i32 @call_dissector(ptr noundef %74, ptr noundef %73, ptr noundef %1, ptr noundef %2)
  br label %dissect_xip_sink_node.exit.i

dissect_xip_sink_node.exit.i:                     ; preds = %72, %65
  %.0.i.i = phi i32 [ %75, %72 ], [ 0, %65 ]
  %76 = tail call zeroext i8 @tvb_get_uint8(ptr noundef %0, i32 noundef 1)
  %cond.i.i = icmp eq i8 %76, 0
  br i1 %cond.i.i, label %77, label %81

77:                                               ; preds = %dissect_xip_sink_node.exit.i
  %78 = add i32 %.0.i.i, %68
  %79 = tail call ptr @tvb_new_subset_remaining(ptr noundef %0, i32 noundef %78)
  %80 = tail call i32 @call_data_dissector(ptr noundef %79, ptr noundef %1, ptr noundef %2)
  br label %display_xip.exit

81:                                               ; preds = %dissect_xip_sink_node.exit.i
  %82 = zext i8 %76 to i32
  %83 = tail call ptr (ptr, ptr, ptr, ptr, ...) @expert_add_info_format(ptr noundef %1, ptr noundef %23, ptr noundef nonnull @ei_xip_next_header, ptr noundef nonnull @.str.61, i32 noundef %82)
  br label %display_xip.exit

display_xip.exit:                                 ; preds = %77, %81
  %84 = tail call i32 @tvb_captured_length(ptr noundef %0)
  br label %85

85:                                               ; preds = %4, %display_xip.exit
  %.0 = phi i32 [ %84, %display_xip.exit ], [ 0, %4 ]
  ret i32 %.0
}